target datalayout = "e-m:e-p270:32:32-p271:32:32-p272:64:64-i64:64-f80:128-n8:16:32:64-S128"
target triple = "x86_64-pc-linux-gnu"

@.str = private unnamed_addr constant [4 x i8] c"%d\0A\00", align 1
@s = common dso_local global [10010 x i8] zeroinitializer, align 16
@.str.1 = private unnamed_addr constant [4 x i8] c"no\0A\00", align 1
@.str.2 = private unnamed_addr constant [4 x i8] c"%c\0A\00", align 1

; Function Attrs: noinline nounwind uwtable
define dso_local i32 @main() #0 {
  %1 = alloca i32, align 4
  %2 = alloca [26 x i32], align 16
  %3 = alloca i32, align 4
  %4 = alloca i32, align 4
  %5 = alloca i32, align 4
  %6 = alloca i32, align 4
  %7 = alloca i32, align 4
  %8 = alloca i32, align 4
  %9 = alloca i8, align 1
  %10 = alloca [26 x i8], align 16
  store i32 0, i32* %1, align 4
  %11 = call i32 (i8*, ...) @__isoc99_scanf(i8* getelementptr inbounds ([4 x i8], [4 x i8]* @.str, i64 0, i64 0), i32* %4)
  store i32 0, i32* %3, align 4
  br label %12

12:                                               ; preds = %120, %0
  %13 = load i32, i32* %3, align 4
  %14 = load i32, i32* %4, align 4
  %15 = icmp slt i32 %13, %14
  br i1 %15, label %16, label %123

16:                                               ; preds = %12
  store i32 0, i32* %5, align 4
  br label %17

17:                                               ; preds = %24, %16
  %18 = load i32, i32* %5, align 4
  %19 = icmp slt i32 %18, 26
  br i1 %19, label %20, label %27

20:                                               ; preds = %17
  %21 = load i32, i32* %5, align 4
  %22 = sext i32 %21 to i64
  %23 = getelementptr inbounds [26 x i32], [26 x i32]* %2, i64 0, i64 %22
  store i32 0, i32* %23, align 4
  br label %24

24:                                               ; preds = %20
  %25 = load i32, i32* %5, align 4
  %26 = add nsw i32 %25, 1
  store i32 %26, i32* %5, align 4
  br label %17

27:                                               ; preds = %17
  store i32 0, i32* %5, align 4
  store i32 0, i32* %6, align 4
  store i32 0, i32* %8, align 4
  br label %28

28:                                               ; preds = %33, %27
  %29 = call i32 @getchar()
  %30 = trunc i32 %29 to i8
  store i8 %30, i8* %9, align 1
  %31 = sext i8 %30 to i32
  %32 = icmp ne i32 %31, 10
  br i1 %32, label %33, label %46

33:                                               ; preds = %28
  %34 = load i8, i8* %9, align 1
  %35 = sext i8 %34 to i32
  %36 = sub nsw i32 %35, 97
  %37 = sext i32 %36 to i64
  %38 = getelementptr inbounds [26 x i32], [26 x i32]* %2, i64 0, i64 %37
  %39 = load i32, i32* %38, align 4
  %40 = add nsw i32 %39, 1
  store i32 %40, i32* %38, align 4
  %41 = load i8, i8* %9, align 1
  %42 = load i32, i32* %5, align 4
  %43 = add nsw i32 %42, 1
  store i32 %43, i32* %5, align 4
  %44 = sext i32 %42 to i64
  %45 = getelementptr inbounds [10010 x i8], [10010 x i8]* @s, i64 0, i64 %44
  store i8 %41, i8* %45, align 1
  br label %28

46:                                               ; preds = %28
  store i32 0, i32* %7, align 4
  br label %47

47:                                               ; preds = %65, %46
  %48 = load i32, i32* %7, align 4
  %49 = icmp slt i32 %48, 26
  br i1 %49, label %50, label %68

50:                                               ; preds = %47
  %51 = load i32, i32* %7, align 4
  %52 = sext i32 %51 to i64
  %53 = getelementptr inbounds [26 x i32], [26 x i32]* %2, i64 0, i64 %52
  %54 = load i32, i32* %53, align 4
  %55 = icmp eq i32 %54, 1
  br i1 %55, label %56, label %64

56:                                               ; preds = %50
  %57 = load i32, i32* %7, align 4
  %58 = add nsw i32 %57, 97
  %59 = trunc i32 %58 to i8
  %60 = load i32, i32* %6, align 4
  %61 = add nsw i32 %60, 1
  store i32 %61, i32* %6, align 4
  %62 = sext i32 %60 to i64
  %63 = getelementptr inbounds [26 x i8], [26 x i8]* %10, i64 0, i64 %62
  store i8 %59, i8* %63, align 1
  br label %64

64:                                               ; preds = %56, %50
  br label %65

65:                                               ; preds = %64
  %66 = load i32, i32* %7, align 4
  %67 = add nsw i32 %66, 1
  store i32 %67, i32* %7, align 4
  br label %47

68:                                               ; preds = %47
  %69 = load i32, i32* %6, align 4
  %70 = icmp eq i32 %69, 0
  br i1 %70, label %71, label %73

71:                                               ; preds = %68
  %72 = call i32 (i8*, ...) @printf(i8* getelementptr inbounds ([4 x i8], [4 x i8]* @.str.1, i64 0, i64 0))
  br label %119

73:                                               ; preds = %68
  store i32 0, i32* %5, align 4
  br label %74

74:                                               ; preds = %115, %73
  %75 = load i32, i32* %5, align 4
  %76 = sext i32 %75 to i64
  %77 = getelementptr inbounds [10010 x i8], [10010 x i8]* @s, i64 0, i64 %76
  %78 = load i8, i8* %77, align 1
  %79 = icmp ne i8 %78, 0
  br i1 %79, label %80, label %118

80:                                               ; preds = %74
  store i32 0, i32* %6, align 4
  br label %81

81:                                               ; preds = %107, %80
  %82 = load i32, i32* %6, align 4
  %83 = sext i32 %82 to i64
  %84 = getelementptr inbounds [26 x i8], [26 x i8]* %10, i64 0, i64 %83
  %85 = load i8, i8* %84, align 1
  %86 = icmp ne i8 %85, 0
  br i1 %86, label %87, label %110

87:                                               ; preds = %81
  %88 = load i32, i32* %5, align 4
  %89 = sext i32 %88 to i64
  %90 = getelementptr inbounds [10010 x i8], [10010 x i8]* @s, i64 0, i64 %89
  %91 = load i8, i8* %90, align 1
  %92 = sext i8 %91 to i32
  %93 = load i32, i32* %6, align 4
  %94 = sext i32 %93 to i64
  %95 = getelementptr inbounds [26 x i8], [26 x i8]* %10, i64 0, i64 %94
  %96 = load i8, i8* %95, align 1
  %97 = sext i8 %96 to i32
  %98 = icmp eq i32 %92, %97
  br i1 %98, label %99, label %106

99:                                               ; preds = %87
  %100 = load i32, i32* %5, align 4
  %101 = sext i32 %100 to i64
  %102 = getelementptr inbounds [10010 x i8], [10010 x i8]* @s, i64 0, i64 %101
  %103 = load i8, i8* %102, align 1
  %104 = sext i8 %103 to i32
  %105 = call i32 (i8*, ...) @printf(i8* getelementptr inbounds ([4 x i8], [4 x i8]* @.str.2, i64 0, i64 0), i32 %104)
  store i32 1, i32* %8, align 4
  br label %110

106:                                              ; preds = %87
  br label %107

107:                                              ; preds = %106
  %108 = load i32, i32* %6, align 4
  %109 = add nsw i32 %108, 1
  store i32 %109, i32* %6, align 4
  br label %81

110:                                              ; preds = %99, %81
  %111 = load i32, i32* %8, align 4
  %112 = icmp ne i32 %111, 0
  br i1 %112, label %113, label %114

113:                                              ; preds = %110
  br label %118

114:                                              ; preds = %110
  br label %115

115:                                              ; preds = %114
  %116 = load i32, i32* %5, align 4
  %117 = add nsw i32 %116, 1
  store i32 %117, i32* %5, align 4
  br label %74

118:                                              ; preds = %113, %74
  br label %119

119:                                              ; preds = %118, %71
  br label %120

120:                                              ; preds = %119
  %121 = load i32, i32* %3, align 4
  %122 = add nsw i32 %121, 1
  store i32 %122, i32* %3, align 4
  br label %12

123:                                              ; preds = %12
  ret i32 0
}